target datalayout = "e-m:e-p270:32:32-p271:32:32-p272:64:64-i64:64-i128:128-f80:128-n8:16:32:64-S128"
target triple = "x86_64-pc-linux-gnu"

%struct._object = type { %union.anon, ptr }
%union.anon = type { i64 }
%struct._err_stackitem = type { ptr, ptr }
%union._PyStackRef = type { i64 }
%struct._PyGenObject = type { %struct._object, ptr, ptr, ptr, %struct._err_stackitem, ptr, i8, i8, i8, i8, %struct._PyInterpreterFrame }
%struct._PyInterpreterFrame = type { %union._PyStackRef, ptr, %union._PyStackRef, ptr, ptr, ptr, ptr, ptr, ptr, i16, i8, i8, [1 x %union._PyStackRef] }
%struct._PyAsyncGenObject = type { %struct._object, ptr, ptr, ptr, %struct._err_stackitem, ptr, i8, i8, i8, i8, %struct._PyInterpreterFrame }

; Function Attrs: nounwind uwtable
define internal i32 @gen_traverse(ptr noundef %0, ptr noundef %1, ptr noundef %2) #0 {
  %4 = alloca i32, align 4
  %5 = alloca ptr, align 8
  %6 = alloca ptr, align 8
  %7 = alloca ptr, align 8
  %8 = alloca ptr, align 8
  %9 = alloca i32, align 4
  %10 = alloca i32, align 4
  %11 = alloca i32, align 4
  %12 = alloca ptr, align 8
  %13 = alloca i32, align 4
  %14 = alloca i32, align 4
  %15 = alloca i32, align 4
  store ptr %0, ptr %5, align 8, !tbaa !11
  store ptr %1, ptr %6, align 8, !tbaa !50
  store ptr %2, ptr %7, align 8, !tbaa !50
  call void @llvm.lifetime.start.p0(i64 8, ptr %8) #7
  %16 = load ptr, ptr %5, align 8, !tbaa !11
  store ptr %16, ptr %8, align 8, !tbaa !4
  br label %17

17:                                               ; preds = %3
  %18 = load ptr, ptr %8, align 8, !tbaa !4
  %19 = getelementptr inbounds nuw %struct._PyGenObject, ptr %18, i32 0, i32 2
  %20 = load ptr, ptr %19, align 8, !tbaa !51
  %21 = icmp ne ptr %20, null
  br i1 %21, label %22, label %37

22:                                               ; preds = %17
  call void @llvm.lifetime.start.p0(i64 4, ptr %9) #7
  %23 = load ptr, ptr %6, align 8, !tbaa !50
  %24 = load ptr, ptr %8, align 8, !tbaa !4
  %25 = getelementptr inbounds nuw %struct._PyGenObject, ptr %24, i32 0, i32 2
  %26 = load ptr, ptr %25, align 8, !tbaa !51
  %27 = load ptr, ptr %7, align 8, !tbaa !50
  %28 = call i32 %23(ptr noundef %26, ptr noundef %27)
  store i32 %28, ptr %9, align 4, !tbaa !14
  %29 = load i32, ptr %9, align 4, !tbaa !14
  %30 = icmp ne i32 %29, 0
  br i1 %30, label %31, label %33

31:                                               ; preds = %22
  %32 = load i32, ptr %9, align 4, !tbaa !14
  store i32 %32, ptr %4, align 4
  store i32 1, ptr %10, align 4
  br label %34

33:                                               ; preds = %22
  store i32 0, ptr %10, align 4
  br label %34

34:                                               ; preds = %33, %31
  call void @llvm.lifetime.end.p0(i64 4, ptr %9) #7
  %35 = load i32, ptr %10, align 4
  switch i32 %35, label %134 [
    i32 0, label %36
  ]

36:                                               ; preds = %34
  br label %37

37:                                               ; preds = %36, %17
  br label %38

38:                                               ; preds = %37
  br label %39

39:                                               ; preds = %38
  br label %40

40:                                               ; preds = %39
  %41 = load ptr, ptr %8, align 8, !tbaa !4
  %42 = getelementptr inbounds nuw %struct._PyGenObject, ptr %41, i32 0, i32 3
  %43 = load ptr, ptr %42, align 8, !tbaa !49
  %44 = icmp ne ptr %43, null
  br i1 %44, label %45, label %60

45:                                               ; preds = %40
  call void @llvm.lifetime.start.p0(i64 4, ptr %11) #7
  %46 = load ptr, ptr %6, align 8, !tbaa !50
  %47 = load ptr, ptr %8, align 8, !tbaa !4
  %48 = getelementptr inbounds nuw %struct._PyGenObject, ptr %47, i32 0, i32 3
  %49 = load ptr, ptr %48, align 8, !tbaa !49
  %50 = load ptr, ptr %7, align 8, !tbaa !50
  %51 = call i32 %46(ptr noundef %49, ptr noundef %50)
  store i32 %51, ptr %11, align 4, !tbaa !14
  %52 = load i32, ptr %11, align 4, !tbaa !14
  %53 = icmp ne i32 %52, 0
  br i1 %53, label %54, label %56

54:                                               ; preds = %45
  %55 = load i32, ptr %11, align 4, !tbaa !14
  store i32 %55, ptr %4, align 4
  store i32 1, ptr %10, align 4
  br label %57

56:                                               ; preds = %45
  store i32 0, ptr %10, align 4
  br label %57

57:                                               ; preds = %56, %54
  call void @llvm.lifetime.end.p0(i64 4, ptr %11) #7
  %58 = load i32, ptr %10, align 4
  switch i32 %58, label %134 [
    i32 0, label %59
  ]

59:                                               ; preds = %57
  br label %60

60:                                               ; preds = %59, %40
  br label %61

61:                                               ; preds = %60
  br label %62

62:                                               ; preds = %61
  %63 = load ptr, ptr %8, align 8, !tbaa !4
  %64 = getelementptr inbounds nuw %struct._PyGenObject, ptr %63, i32 0, i32 9
  %65 = load i8, ptr %64, align 1, !tbaa !16
  %66 = sext i8 %65 to i32
  %67 = icmp ne i32 %66, 4
  br i1 %67, label %68, label %83

68:                                               ; preds = %62
  call void @llvm.lifetime.start.p0(i64 8, ptr %12) #7
  %69 = load ptr, ptr %8, align 8, !tbaa !4
  %70 = getelementptr inbounds nuw %struct._PyGenObject, ptr %69, i32 0, i32 10
  store ptr %70, ptr %12, align 8, !tbaa !37
  call void @llvm.lifetime.start.p0(i64 4, ptr %13) #7
  %71 = load ptr, ptr %12, align 8, !tbaa !37
  %72 = load ptr, ptr %6, align 8, !tbaa !50
  %73 = load ptr, ptr %7, align 8, !tbaa !50
  %74 = call i32 @_PyFrame_Traverse(ptr noundef %71, ptr noundef %72, ptr noundef %73)
  store i32 %74, ptr %13, align 4, !tbaa !14
  %75 = load i32, ptr %13, align 4, !tbaa !14
  %76 = icmp ne i32 %75, 0
  br i1 %76, label %77, label %79

77:                                               ; preds = %68
  %78 = load i32, ptr %13, align 4, !tbaa !14
  store i32 %78, ptr %4, align 4
  store i32 1, ptr %10, align 4
  br label %80

79:                                               ; preds = %68
  store i32 0, ptr %10, align 4
  br label %80

80:                                               ; preds = %79, %77
  call void @llvm.lifetime.end.p0(i64 4, ptr %13) #7
  call void @llvm.lifetime.end.p0(i64 8, ptr %12) #7
  %81 = load i32, ptr %10, align 4
  switch i32 %81, label %134 [
    i32 0, label %82
  ]

82:                                               ; preds = %80
  br label %108

83:                                               ; preds = %62
  br label %84

84:                                               ; preds = %83
  %85 = load ptr, ptr %8, align 8, !tbaa !4
  %86 = getelementptr inbounds nuw %struct._PyGenObject, ptr %85, i32 0, i32 10
  %87 = getelementptr inbounds nuw %struct._PyInterpreterFrame, ptr %86, i32 0, i32 0
  %88 = load i64, ptr %87, align 8, !tbaa !13
  %89 = icmp eq i64 %88, 0
  br i1 %89, label %105, label %90

90:                                               ; preds = %84
  call void @llvm.lifetime.start.p0(i64 4, ptr %14) #7
  %91 = load ptr, ptr %8, align 8, !tbaa !4
  %92 = getelementptr inbounds nuw %struct._PyGenObject, ptr %91, i32 0, i32 10
  %93 = getelementptr inbounds nuw %struct._PyInterpreterFrame, ptr %92, i32 0, i32 0
  %94 = load ptr, ptr %6, align 8, !tbaa !50
  %95 = load ptr, ptr %7, align 8, !tbaa !50
  %96 = call i32 @_PyGC_VisitStackRef(ptr noundef %93, ptr noundef %94, ptr noundef %95)
  store i32 %96, ptr %14, align 4, !tbaa !14
  %97 = load i32, ptr %14, align 4, !tbaa !14
  %98 = icmp ne i32 %97, 0
  br i1 %98, label %99, label %101

99:                                               ; preds = %90
  %100 = load i32, ptr %14, align 4, !tbaa !14
  store i32 %100, ptr %4, align 4
  store i32 1, ptr %10, align 4
  br label %102

101:                                              ; preds = %90
  store i32 0, ptr %10, align 4
  br label %102

102:                                              ; preds = %101, %99
  call void @llvm.lifetime.end.p0(i64 4, ptr %14) #7
  %103 = load i32, ptr %10, align 4
  switch i32 %103, label %134 [
    i32 0, label %104
  ]

104:                                              ; preds = %102
  br label %105

105:                                              ; preds = %104, %84
  br label %106

106:                                              ; preds = %105
  br label %107

107:                                              ; preds = %106
  br label %108

108:                                              ; preds = %107, %82
  br label %109

109:                                              ; preds = %108
  %110 = load ptr, ptr %8, align 8, !tbaa !4
  %111 = getelementptr inbounds nuw %struct._PyGenObject, ptr %110, i32 0, i32 4
  %112 = getelementptr inbounds nuw %struct._err_stackitem, ptr %111, i32 0, i32 0
  %113 = load ptr, ptr %112, align 8, !tbaa !52
  %114 = icmp ne ptr %113, null
  br i1 %114, label %115, label %131

115:                                              ; preds = %109
  call void @llvm.lifetime.start.p0(i64 4, ptr %15) #7
  %116 = load ptr, ptr %6, align 8, !tbaa !50
  %117 = load ptr, ptr %8, align 8, !tbaa !4
  %118 = getelementptr inbounds nuw %struct._PyGenObject, ptr %117, i32 0, i32 4
  %119 = getelementptr inbounds nuw %struct._err_stackitem, ptr %118, i32 0, i32 0
  %120 = load ptr, ptr %119, align 8, !tbaa !52
  %121 = load ptr, ptr %7, align 8, !tbaa !50
  %122 = call i32 %116(ptr noundef %120, ptr noundef %121)
  store i32 %122, ptr %15, align 4, !tbaa !14
  %123 = load i32, ptr %15, align 4, !tbaa !14
  %124 = icmp ne i32 %123, 0
  br i1 %124, label %125, label %127

125:                                              ; preds = %115
  %126 = load i32, ptr %15, align 4, !tbaa !14
  store i32 %126, ptr %4, align 4
  store i32 1, ptr %10, align 4
  br label %128

127:                                              ; preds = %115
  store i32 0, ptr %10, align 4
  br label %128

128:                                              ; preds = %127, %125
  call void @llvm.lifetime.end.p0(i64 4, ptr %15) #7
  %129 = load i32, ptr %10, align 4
  switch i32 %129, label %134 [
    i32 0, label %130
  ]

130:                                              ; preds = %128
  br label %131

131:                                              ; preds = %130, %109
  br label %132

132:                                              ; preds = %131
  br label %133

133:                                              ; preds = %132
  store i32 0, ptr %4, align 4
  store i32 1, ptr %10, align 4
  br label %134

134:                                              ; preds = %133, %128, %102, %80, %57, %34
  call void @llvm.lifetime.end.p0(i64 8, ptr %8) #7
  %135 = load i32, ptr %4, align 4
  ret i32 %135
}

; Function Attrs: nounwind uwtable
define internal i32 @async_gen_traverse(ptr noundef %0, ptr noundef %1, ptr noundef %2) #0 {
  %4 = alloca i32, align 4
  %5 = alloca ptr, align 8
  %6 = alloca ptr, align 8
  %7 = alloca ptr, align 8
  %8 = alloca ptr, align 8
  %9 = alloca i32, align 4
  %10 = alloca i32, align 4
  store ptr %0, ptr %5, align 8, !tbaa !11
  store ptr %1, ptr %6, align 8, !tbaa !50
  store ptr %2, ptr %7, align 8, !tbaa !50
  call void @llvm.lifetime.start.p0(i64 8, ptr %8) #7
  %11 = load ptr, ptr %5, align 8, !tbaa !11
  store ptr %11, ptr %8, align 8, !tbaa !27
  br label %12

12:                                               ; preds = %3
  %13 = load ptr, ptr %8, align 8, !tbaa !27
  %14 = getelementptr inbounds nuw %struct._PyAsyncGenObject, ptr %13, i32 0, i32 5
  %15 = load ptr, ptr %14, align 8, !tbaa !29
  %16 = icmp ne ptr %15, null
  br i1 %16, label %17, label %32

17:                                               ; preds = %12
  call void @llvm.lifetime.start.p0(i64 4, ptr %9) #7
  %18 = load ptr, ptr %6, align 8, !tbaa !50
  %19 = load ptr, ptr %8, align 8, !tbaa !27
  %20 = getelementptr inbounds nuw %struct._PyAsyncGenObject, ptr %19, i32 0, i32 5
  %21 = load ptr, ptr %20, align 8, !tbaa !29
  %22 = load ptr, ptr %7, align 8, !tbaa !50
  %23 = call i32 %18(ptr noundef %21, ptr noundef %22)
  store i32 %23, ptr %9, align 4, !tbaa !14
  %24 = load i32, ptr %9, align 4, !tbaa !14
  %25 = icmp ne i32 %24, 0
  br i1 %25, label %26, label %28

26:                                               ; preds = %17
  %27 = load i32, ptr %9, align 4, !tbaa !14
  store i32 %27, ptr %4, align 4
  store i32 1, ptr %10, align 4
  br label %29

28:                                               ; preds = %17
  store i32 0, ptr %10, align 4
  br label %29

29:                                               ; preds = %28, %26
  call void @llvm.lifetime.end.p0(i64 4, ptr %9) #7
  %30 = load i32, ptr %10, align 4
  switch i32 %30, label %39 [
    i32 0, label %31
  ]

31:                                               ; preds = %29
  br label %32

32:                                               ; preds = %31, %12
  br label %33

33:                                               ; preds = %32
  br label %34

34:                                               ; preds = %33
  %35 = load ptr, ptr %8, align 8, !tbaa !27
  %36 = load ptr, ptr %6, align 8, !tbaa !50
  %37 = load ptr, ptr %7, align 8, !tbaa !50
  %38 = call i32 @gen_traverse(ptr noundef %35, ptr noundef %36, ptr noundef %37)
  store i32 %38, ptr %4, align 4
  store i32 1, ptr %10, align 4
  br label %39

39:                                               ; preds = %34, %29
  call void @llvm.lifetime.end.p0(i64 8, ptr %8) #7
  %40 = load i32, ptr %4, align 4
  ret i32 %40
}