; Function Attrs: nounwind uwtable
define internal i32 @async_gen_traverse(ptr noundef %0, ptr noundef %1, ptr noundef %2) #2 {
  %4 = getelementptr inbounds nuw i8, ptr %0, i64 56
  %5 = load ptr, ptr %4, align 8, !tbaa !21
  %.not = icmp eq ptr %5, null
  br i1 %.not, label %8, label %6

6:                                                ; preds = %3
  %7 = tail call i32 %1(ptr noundef nonnull %5, ptr noundef %2) #8
  %.not13 = icmp eq i32 %7, 0
  br i1 %.not13, label %8, label %gen_traverse.exit

8:                                                ; preds = %6, %3
  %9 = getelementptr inbounds nuw i8, ptr %0, i64 24
  %10 = load ptr, ptr %9, align 8, !tbaa !117
  %.not.i = icmp eq ptr %10, null
  br i1 %.not.i, label %13, label %11

11:                                               ; preds = %8
  %12 = tail call i32 %1(ptr noundef nonnull %10, ptr noundef %2) #8
  %.not52.i = icmp eq i32 %12, 0
  br i1 %.not52.i, label %13, label %gen_traverse.exit

13:                                               ; preds = %11, %8
  %14 = getelementptr inbounds nuw i8, ptr %0, i64 32
  %15 = load ptr, ptr %14, align 8, !tbaa !116
  %.not53.i = icmp eq ptr %15, null
  br i1 %.not53.i, label %18, label %16

16:                                               ; preds = %13
  %17 = tail call i32 %1(ptr noundef nonnull %15, ptr noundef %2) #8
  %.not54.i = icmp eq i32 %17, 0
  br i1 %.not54.i, label %18, label %gen_traverse.exit

18:                                               ; preds = %16, %13
  %19 = getelementptr inbounds nuw i8, ptr %0, i64 67
  %20 = load i8, ptr %19, align 1, !tbaa !7
  %.not55.i = icmp eq i8 %20, 4
  %21 = getelementptr inbounds nuw i8, ptr %0, i64 72
  br i1 %.not55.i, label %24, label %22

22:                                               ; preds = %18
  %23 = tail call i32 @_PyFrame_Traverse(ptr noundef nonnull %21, ptr noundef %1, ptr noundef %2) #8
  %.not57.i = icmp eq i32 %23, 0
  br i1 %.not57.i, label %29, label %gen_traverse.exit

24:                                               ; preds = %18
  %25 = load i64, ptr %21, align 8, !tbaa !4
  %26 = icmp eq i64 %25, 0
  br i1 %26, label %29, label %27

27:                                               ; preds = %24
  %28 = tail call i32 @_PyGC_VisitStackRef(ptr noundef nonnull %21, ptr noundef %1, ptr noundef %2) #8
  %.not56.i = icmp eq i32 %28, 0
  br i1 %.not56.i, label %29, label %gen_traverse.exit

29:                                               ; preds = %27, %24, %22
  %30 = getelementptr inbounds nuw i8, ptr %0, i64 40
  %31 = load ptr, ptr %30, align 8, !tbaa !118
  %.not58.i = icmp eq ptr %31, null
  br i1 %.not58.i, label %34, label %32

32:                                               ; preds = %29
  %33 = tail call i32 %1(ptr noundef nonnull %31, ptr noundef %2) #8
  %.not59.i = icmp eq i32 %33, 0
  br i1 %.not59.i, label %34, label %gen_traverse.exit

34:                                               ; preds = %32, %29
  br label %gen_traverse.exit

gen_traverse.exit:                                ; preds = %34, %32, %27, %22, %16, %11, %6
  %.1 = phi i32 [ %7, %6 ], [ 0, %34 ], [ %33, %32 ], [ %23, %22 ], [ %28, %27 ], [ %17, %16 ], [ %12, %11 ]
  ret i32 %.1
}